target datalayout = "e-m:e-p270:32:32-p271:32:32-p272:64:64-i64:64-i128:128-f80:128-n8:16:32:64-S128"
target triple = "x86_64-pc-linux-gnu"

%struct.ec_group_st = type { ptr, ptr, ptr, ptr, i32, i32, i32, i32, ptr, i64, ptr, [6 x i32], ptr, ptr, i32, ptr, ptr, ptr, ptr, i32, %union.anon.2, ptr, ptr }
%union.anon.2 = type { ptr }
%struct.ecpk_parameters_st = type { i32, %union.anon }
%union.anon = type { ptr }
%struct.ec_privatekey_st = type { i32, ptr, ptr, ptr }
%struct.ec_key_st = type { ptr, ptr, i32, ptr, ptr, ptr, i32, i32, %struct.CRYPTO_REF_COUNT, i32, %struct.crypto_ex_data_st, ptr, ptr, i64 }
%struct.CRYPTO_REF_COUNT = type { i32 }
%struct.crypto_ex_data_st = type { ptr, ptr }
%struct.ec_method_st = type { i32, i32, ptr, ptr, ptr, ptr, ptr, ptr, ptr, ptr, ptr, ptr, ptr, ptr, ptr, ptr, ptr, ptr, ptr, ptr, ptr, ptr, ptr, ptr, ptr, ptr, ptr, ptr, ptr, ptr, ptr, ptr, ptr, ptr, ptr, ptr, ptr, ptr, ptr, ptr, ptr, ptr, ptr, ptr, ptr, ptr, ptr, ptr, ptr, ptr, ptr, ptr, ptr, ptr, ptr, ptr, ptr }

@.str.2 = private unnamed_addr constant [31 x i8] c"../openssl/crypto/ec/ec_asn1.c\00", align 1
@__func__.d2i_ECPrivateKey = private unnamed_addr constant [17 x i8] c"d2i_ECPrivateKey\00", align 1
@EC_PRIVATEKEY_it.local_it = internal constant { i8, [7 x i8], i64, ptr, i64, ptr, i64, ptr } { i8 1, [7 x i8] zeroinitializer, i64 16, ptr @EC_PRIVATEKEY_seq_tt, i64 4, ptr null, i64 32, ptr @.str.31 }, align 8

; Function Attrs: nounwind uwtable
define internal ptr @EC_PRIVATEKEY_it() #0 {
  ret ptr @EC_PRIVATEKEY_it.local_it
}

; Function Attrs: nounwind uwtable
define void @EC_PRIVATEKEY_free(ptr noundef %0) #0 {
  %2 = alloca ptr, align 8
  store ptr %0, ptr %2, align 8, !tbaa !22
  %3 = load ptr, ptr %2, align 8, !tbaa !22
  %4 = call ptr @EC_PRIVATEKEY_it()
  call void @ASN1_item_free(ptr noundef %3, ptr noundef %4)
  ret void
}

; Function Attrs: nounwind uwtable
define ptr @d2i_EC_PRIVATEKEY(ptr noundef %0, ptr noundef %1, i64 noundef %2) #0 {
  %4 = alloca ptr, align 8
  %5 = alloca ptr, align 8
  %6 = alloca i64, align 8
  store ptr %0, ptr %4, align 8, !tbaa !20
  store ptr %1, ptr %5, align 8, !tbaa !14
  store i64 %2, ptr %6, align 8, !tbaa !16
  %7 = load ptr, ptr %4, align 8, !tbaa !20
  %8 = load ptr, ptr %5, align 8, !tbaa !14
  %9 = load i64, ptr %6, align 8, !tbaa !16
  %10 = call ptr @EC_PRIVATEKEY_it()
  %11 = call ptr @ASN1_item_d2i(ptr noundef %7, ptr noundef %8, i64 noundef %9, ptr noundef %10)
  ret ptr %11
}

; Function Attrs: nounwind uwtable
define ptr @d2i_ECPrivateKey(ptr noundef %0, ptr noundef %1, i64 noundef %2) #0 {
  %4 = alloca ptr, align 8
  %5 = alloca ptr, align 8
  %6 = alloca ptr, align 8
  %7 = alloca i64, align 8
  %8 = alloca ptr, align 8
  %9 = alloca ptr, align 8
  %10 = alloca ptr, align 8
  %11 = alloca i32, align 4
  %12 = alloca ptr, align 8
  %13 = alloca ptr, align 8
  %14 = alloca i32, align 4
  store ptr %0, ptr %5, align 8, !tbaa !79
  store ptr %1, ptr %6, align 8, !tbaa !14
  store i64 %2, ptr %7, align 8, !tbaa !16
  call void @llvm.lifetime.start.p0(i64 8, ptr %8) #4
  store ptr null, ptr %8, align 8, !tbaa !81
  call void @llvm.lifetime.start.p0(i64 8, ptr %9) #4
  store ptr null, ptr %9, align 8, !tbaa !22
  call void @llvm.lifetime.start.p0(i64 8, ptr %10) #4
  %15 = load ptr, ptr %6, align 8, !tbaa !14
  %16 = load ptr, ptr %15, align 8, !tbaa !26
  store ptr %16, ptr %10, align 8, !tbaa !26
  %17 = load i64, ptr %7, align 8, !tbaa !16
  %18 = call ptr @d2i_EC_PRIVATEKEY(ptr noundef null, ptr noundef %10, i64 noundef %17)
  store ptr %18, ptr %9, align 8, !tbaa !22
  %19 = icmp eq ptr %18, null
  br i1 %19, label %20, label %21

20:                                               ; preds = %3
  store ptr null, ptr %4, align 8
  store i32 1, ptr %11, align 4
  br label %203

21:                                               ; preds = %3
  %22 = load ptr, ptr %5, align 8, !tbaa !79
  %23 = icmp eq ptr %22, null
  br i1 %23, label %28, label %24

24:                                               ; preds = %21
  %25 = load ptr, ptr %5, align 8, !tbaa !79
  %26 = load ptr, ptr %25, align 8, !tbaa !81
  %27 = icmp eq ptr %26, null
  br i1 %27, label %28, label %33

28:                                               ; preds = %24, %21
  %29 = call ptr @EC_KEY_new()
  store ptr %29, ptr %8, align 8, !tbaa !81
  %30 = icmp eq ptr %29, null
  br i1 %30, label %31, label %32

31:                                               ; preds = %28
  call void @ERR_new()
  call void @ERR_set_debug(ptr noundef @.str.2, i32 noundef 944, ptr noundef @__func__.d2i_ECPrivateKey)
  call void (i32, i32, ptr, ...) @ERR_set_error(i32 noundef 16, i32 noundef 524304, ptr noundef null)
  br label %191

32:                                               ; preds = %28
  br label %36

33:                                               ; preds = %24
  %34 = load ptr, ptr %5, align 8, !tbaa !79
  %35 = load ptr, ptr %34, align 8, !tbaa !81
  store ptr %35, ptr %8, align 8, !tbaa !81
  br label %36

36:                                               ; preds = %33, %32
  %37 = load ptr, ptr %9, align 8, !tbaa !22
  %38 = getelementptr inbounds nuw %struct.ec_privatekey_st, ptr %37, i32 0, i32 2
  %39 = load ptr, ptr %38, align 8, !tbaa !83
  %40 = icmp ne ptr %39, null
  br i1 %40, label %41, label %68

41:                                               ; preds = %36
  %42 = load ptr, ptr %8, align 8, !tbaa !81
  %43 = getelementptr inbounds nuw %struct.ec_key_st, ptr %42, i32 0, i32 3
  %44 = load ptr, ptr %43, align 8, !tbaa !85
  call void @EC_GROUP_free(ptr noundef %44)
  %45 = load ptr, ptr %9, align 8, !tbaa !22
  %46 = getelementptr inbounds nuw %struct.ec_privatekey_st, ptr %45, i32 0, i32 2
  %47 = load ptr, ptr %46, align 8, !tbaa !83
  %48 = call ptr @EC_GROUP_new_from_ecpkparameters(ptr noundef %47)
  %49 = load ptr, ptr %8, align 8, !tbaa !81
  %50 = getelementptr inbounds nuw %struct.ec_key_st, ptr %49, i32 0, i32 3
  store ptr %48, ptr %50, align 8, !tbaa !85
  %51 = load ptr, ptr %8, align 8, !tbaa !81
  %52 = getelementptr inbounds nuw %struct.ec_key_st, ptr %51, i32 0, i32 3
  %53 = load ptr, ptr %52, align 8, !tbaa !85
  %54 = icmp ne ptr %53, null
  br i1 %54, label %55, label %67

55:                                               ; preds = %41
  %56 = load ptr, ptr %9, align 8, !tbaa !22
  %57 = getelementptr inbounds nuw %struct.ec_privatekey_st, ptr %56, i32 0, i32 2
  %58 = load ptr, ptr %57, align 8, !tbaa !83
  %59 = getelementptr inbounds nuw %struct.ecpk_parameters_st, ptr %58, i32 0, i32 0
  %60 = load i32, ptr %59, align 8, !tbaa !68
  %61 = icmp eq i32 %60, 1
  br i1 %61, label %62, label %67

62:                                               ; preds = %55
  %63 = load ptr, ptr %8, align 8, !tbaa !81
  %64 = getelementptr inbounds nuw %struct.ec_key_st, ptr %63, i32 0, i32 3
  %65 = load ptr, ptr %64, align 8, !tbaa !85
  %66 = getelementptr inbounds nuw %struct.ec_group_st, ptr %65, i32 0, i32 6
  store i32 1, ptr %66, align 8, !tbaa !78
  br label %67

67:                                               ; preds = %62, %55, %41
  br label %68

68:                                               ; preds = %67, %36
  %69 = load ptr, ptr %8, align 8, !tbaa !81
  %70 = getelementptr inbounds nuw %struct.ec_key_st, ptr %69, i32 0, i32 3
  %71 = load ptr, ptr %70, align 8, !tbaa !85
  %72 = icmp eq ptr %71, null
  br i1 %72, label %73, label %74

73:                                               ; preds = %68
  call void @ERR_new()
  call void @ERR_set_debug(ptr noundef @.str.2, i32 noundef 959, ptr noundef @__func__.d2i_ECPrivateKey)
  call void (i32, i32, ptr, ...) @ERR_set_error(i32 noundef 16, i32 noundef 524304, ptr noundef null)
  br label %191

74:                                               ; preds = %68
  %75 = load ptr, ptr %9, align 8, !tbaa !22
  %76 = getelementptr inbounds nuw %struct.ec_privatekey_st, ptr %75, i32 0, i32 0
  %77 = load i32, ptr %76, align 8, !tbaa !92
  %78 = load ptr, ptr %8, align 8, !tbaa !81
  %79 = getelementptr inbounds nuw %struct.ec_key_st, ptr %78, i32 0, i32 2
  store i32 %77, ptr %79, align 8, !tbaa !93
  %80 = load ptr, ptr %9, align 8, !tbaa !22
  %81 = getelementptr inbounds nuw %struct.ec_privatekey_st, ptr %80, i32 0, i32 1
  %82 = load ptr, ptr %81, align 8, !tbaa !94
  %83 = icmp ne ptr %82, null
  br i1 %83, label %84, label %101

84:                                               ; preds = %74
  call void @llvm.lifetime.start.p0(i64 8, ptr %12) #4
  %85 = load ptr, ptr %9, align 8, !tbaa !22
  %86 = getelementptr inbounds nuw %struct.ec_privatekey_st, ptr %85, i32 0, i32 1
  %87 = load ptr, ptr %86, align 8, !tbaa !94
  store ptr %87, ptr %12, align 8, !tbaa !43
  %88 = load ptr, ptr %8, align 8, !tbaa !81
  %89 = load ptr, ptr %12, align 8, !tbaa !43
  %90 = call ptr @ASN1_STRING_get0_data(ptr noundef %89)
  %91 = load ptr, ptr %12, align 8, !tbaa !43
  %92 = call i32 @ASN1_STRING_length(ptr noundef %91)
  %93 = sext i32 %92 to i64
  %94 = call i32 @EC_KEY_oct2priv(ptr noundef %88, ptr noundef %90, i64 noundef %93)
  %95 = icmp eq i32 %94, 0
  br i1 %95, label %96, label %97

96:                                               ; preds = %84
  store i32 2, ptr %11, align 4
  br label %98

97:                                               ; preds = %84
  store i32 0, ptr %11, align 4
  br label %98

98:                                               ; preds = %96, %97
  call void @llvm.lifetime.end.p0(i64 8, ptr %12) #4
  %99 = load i32, ptr %11, align 4
  switch i32 %99, label %203 [
    i32 0, label %100
    i32 2, label %191
  ]

100:                                              ; preds = %98
  br label %102

101:                                              ; preds = %74
  call void @ERR_new()
  call void @ERR_set_debug(ptr noundef @.str.2, i32 noundef 971, ptr noundef @__func__.d2i_ECPrivateKey)
  call void (i32, i32, ptr, ...) @ERR_set_error(i32 noundef 16, i32 noundef 125, ptr noundef null)
  br label %191

102:                                              ; preds = %100
  %103 = load ptr, ptr %8, align 8, !tbaa !81
  %104 = getelementptr inbounds nuw %struct.ec_key_st, ptr %103, i32 0, i32 3
  %105 = load ptr, ptr %104, align 8, !tbaa !85
  %106 = call i32 @EC_GROUP_get_curve_name(ptr noundef %105)
  %107 = icmp eq i32 %106, 1172
  br i1 %107, label %108, label %110

108:                                              ; preds = %102
  %109 = load ptr, ptr %8, align 8, !tbaa !81
  call void @EC_KEY_set_flags(ptr noundef %109, i32 noundef 4)
  br label %110

110:                                              ; preds = %108, %102
  %111 = load ptr, ptr %8, align 8, !tbaa !81
  %112 = getelementptr inbounds nuw %struct.ec_key_st, ptr %111, i32 0, i32 4
  %113 = load ptr, ptr %112, align 8, !tbaa !95
  call void @EC_POINT_clear_free(ptr noundef %113)
  %114 = load ptr, ptr %8, align 8, !tbaa !81
  %115 = getelementptr inbounds nuw %struct.ec_key_st, ptr %114, i32 0, i32 3
  %116 = load ptr, ptr %115, align 8, !tbaa !85
  %117 = call ptr @EC_POINT_new(ptr noundef %116)
  %118 = load ptr, ptr %8, align 8, !tbaa !81
  %119 = getelementptr inbounds nuw %struct.ec_key_st, ptr %118, i32 0, i32 4
  store ptr %117, ptr %119, align 8, !tbaa !95
  %120 = load ptr, ptr %8, align 8, !tbaa !81
  %121 = getelementptr inbounds nuw %struct.ec_key_st, ptr %120, i32 0, i32 4
  %122 = load ptr, ptr %121, align 8, !tbaa !95
  %123 = icmp eq ptr %122, null
  br i1 %123, label %124, label %125

124:                                              ; preds = %110
  call void @ERR_new()
  call void @ERR_set_debug(ptr noundef @.str.2, i32 noundef 981, ptr noundef @__func__.d2i_ECPrivateKey)
  call void (i32, i32, ptr, ...) @ERR_set_error(i32 noundef 16, i32 noundef 524304, ptr noundef null)
  br label %191

125:                                              ; preds = %110
  %126 = load ptr, ptr %9, align 8, !tbaa !22
  %127 = getelementptr inbounds nuw %struct.ec_privatekey_st, ptr %126, i32 0, i32 3
  %128 = load ptr, ptr %127, align 8, !tbaa !96
  %129 = icmp ne ptr %128, null
  br i1 %129, label %130, label %150

130:                                              ; preds = %125
  call void @llvm.lifetime.start.p0(i64 8, ptr %13) #4
  call void @llvm.lifetime.start.p0(i64 4, ptr %14) #4
  %131 = load ptr, ptr %9, align 8, !tbaa !22
  %132 = getelementptr inbounds nuw %struct.ec_privatekey_st, ptr %131, i32 0, i32 3
  %133 = load ptr, ptr %132, align 8, !tbaa !96
  %134 = call ptr @ASN1_STRING_get0_data(ptr noundef %133)
  store ptr %134, ptr %13, align 8, !tbaa !26
  %135 = load ptr, ptr %9, align 8, !tbaa !22
  %136 = getelementptr inbounds nuw %struct.ec_privatekey_st, ptr %135, i32 0, i32 3
  %137 = load ptr, ptr %136, align 8, !tbaa !96
  %138 = call i32 @ASN1_STRING_length(ptr noundef %137)
  store i32 %138, ptr %14, align 4, !tbaa !38
  %139 = load ptr, ptr %8, align 8, !tbaa !81
  %140 = load ptr, ptr %13, align 8, !tbaa !26
  %141 = load i32, ptr %14, align 4, !tbaa !38
  %142 = sext i32 %141 to i64
  %143 = call i32 @EC_KEY_oct2key(ptr noundef %139, ptr noundef %140, i64 noundef %142, ptr noundef null)
  %144 = icmp ne i32 %143, 0
  br i1 %144, label %146, label %145

145:                                              ; preds = %130
  call void @ERR_new()
  call void @ERR_set_debug(ptr noundef @.str.2, i32 noundef 992, ptr noundef @__func__.d2i_ECPrivateKey)
  call void (i32, i32, ptr, ...) @ERR_set_error(i32 noundef 16, i32 noundef 524304, ptr noundef null)
  store i32 2, ptr %11, align 4
  br label %147

146:                                              ; preds = %130
  store i32 0, ptr %11, align 4
  br label %147

147:                                              ; preds = %145, %146
  call void @llvm.lifetime.end.p0(i64 4, ptr %14) #4
  call void @llvm.lifetime.end.p0(i64 8, ptr %13) #4
  %148 = load i32, ptr %11, align 4
  switch i32 %148, label %203 [
    i32 0, label %149
    i32 2, label %191
  ]

149:                                              ; preds = %147
  br label %176

150:                                              ; preds = %125
  %151 = load ptr, ptr %8, align 8, !tbaa !81
  %152 = getelementptr inbounds nuw %struct.ec_key_st, ptr %151, i32 0, i32 3
  %153 = load ptr, ptr %152, align 8, !tbaa !85
  %154 = getelementptr inbounds nuw %struct.ec_group_st, ptr %153, i32 0, i32 0
  %155 = load ptr, ptr %154, align 8, !tbaa !97
  %156 = getelementptr inbounds nuw %struct.ec_method_st, ptr %155, i32 0, i32 44
  %157 = load ptr, ptr %156, align 8, !tbaa !98
  %158 = icmp eq ptr %157, null
  br i1 %158, label %170, label %159

159:                                              ; preds = %150
  %160 = load ptr, ptr %8, align 8, !tbaa !81
  %161 = getelementptr inbounds nuw %struct.ec_key_st, ptr %160, i32 0, i32 3
  %162 = load ptr, ptr %161, align 8, !tbaa !85
  %163 = getelementptr inbounds nuw %struct.ec_group_st, ptr %162, i32 0, i32 0
  %164 = load ptr, ptr %163, align 8, !tbaa !97
  %165 = getelementptr inbounds nuw %struct.ec_method_st, ptr %164, i32 0, i32 44
  %166 = load ptr, ptr %165, align 8, !tbaa !98
  %167 = load ptr, ptr %8, align 8, !tbaa !81
  %168 = call i32 %166(ptr noundef %167)
  %169 = icmp eq i32 %168, 0
  br i1 %169, label %170, label %171

170:                                              ; preds = %159, %150
  br label %191

171:                                              ; preds = %159
  %172 = load ptr, ptr %8, align 8, !tbaa !81
  %173 = getelementptr inbounds nuw %struct.ec_key_st, ptr %172, i32 0, i32 6
  %174 = load i32, ptr %173, align 8, !tbaa !100
  %175 = or i32 %174, 2
  store i32 %175, ptr %173, align 8, !tbaa !100
  br label %176

176:                                              ; preds = %171, %149
  %177 = load ptr, ptr %5, align 8, !tbaa !79
  %178 = icmp ne ptr %177, null
  br i1 %178, label %179, label %182

179:                                              ; preds = %176
  %180 = load ptr, ptr %8, align 8, !tbaa !81
  %181 = load ptr, ptr %5, align 8, !tbaa !79
  store ptr %180, ptr %181, align 8, !tbaa !81
  br label %182

182:                                              ; preds = %179, %176
  %183 = load ptr, ptr %9, align 8, !tbaa !22
  call void @EC_PRIVATEKEY_free(ptr noundef %183)
  %184 = load ptr, ptr %10, align 8, !tbaa !26
  %185 = load ptr, ptr %6, align 8, !tbaa !14
  store ptr %184, ptr %185, align 8, !tbaa !26
  %186 = load ptr, ptr %8, align 8, !tbaa !81
  %187 = getelementptr inbounds nuw %struct.ec_key_st, ptr %186, i32 0, i32 13
  %188 = load i64, ptr %187, align 8, !tbaa !101
  %189 = add i64 %188, 1
  store i64 %189, ptr %187, align 8, !tbaa !101
  %190 = load ptr, ptr %8, align 8, !tbaa !81
  store ptr %190, ptr %4, align 8
  store i32 1, ptr %11, align 4
  br label %203

191:                                              ; preds = %147, %98, %170, %124, %101, %73, %31
  %192 = load ptr, ptr %5, align 8, !tbaa !79
  %193 = icmp eq ptr %192, null
  br i1 %193, label %199, label %194

194:                                              ; preds = %191
  %195 = load ptr, ptr %5, align 8, !tbaa !79
  %196 = load ptr, ptr %195, align 8, !tbaa !81
  %197 = load ptr, ptr %8, align 8, !tbaa !81
  %198 = icmp ne ptr %196, %197
  br i1 %198, label %199, label %201

199:                                              ; preds = %194, %191
  %200 = load ptr, ptr %8, align 8, !tbaa !81
  call void @EC_KEY_free(ptr noundef %200)
  br label %201

201:                                              ; preds = %199, %194
  %202 = load ptr, ptr %9, align 8, !tbaa !22
  call void @EC_PRIVATEKEY_free(ptr noundef %202)
  store ptr null, ptr %4, align 8
  store i32 1, ptr %11, align 4
  br label %203

203:                                              ; preds = %201, %182, %147, %98, %20
  call void @llvm.lifetime.end.p0(i64 8, ptr %10) #4
  call void @llvm.lifetime.end.p0(i64 8, ptr %9) #4
  call void @llvm.lifetime.end.p0(i64 8, ptr %8) #4
  %204 = load ptr, ptr %4, align 8
  ret ptr %204
}