; Function Attrs: nounwind uwtable
define ptr @d2i_ECPrivateKey(ptr noundef captures(address_is_null) %0, ptr noundef captures(none) %1, i64 noundef %2) local_unnamed_addr #0 {
  %4 = alloca ptr, align 8
  call void @llvm.lifetime.start.p0(i64 8, ptr nonnull %4) #8
  %5 = load ptr, ptr %1, align 8, !tbaa !3
  store ptr %5, ptr %4, align 8, !tbaa !3
  %6 = call ptr @ASN1_item_d2i(ptr noundef null, ptr noundef nonnull %4, i64 noundef %2, ptr noundef nonnull @EC_PRIVATEKEY_it.local_it) #8
  %7 = icmp eq ptr %6, null
  br i1 %7, label %85, label %8

8:                                                ; preds = %3
  %9 = icmp eq ptr %0, null
  br i1 %9, label %13, label %10

10:                                               ; preds = %8
  %11 = load ptr, ptr %0, align 8, !tbaa !52
  %12 = icmp eq ptr %11, null
  br i1 %12, label %13, label %16

13:                                               ; preds = %10, %8
  %14 = call ptr @EC_KEY_new() #8
  %15 = icmp eq ptr %14, null
  br i1 %15, label %.sink.split, label %16

16:                                               ; preds = %10, %13
  %.1 = phi ptr [ %14, %13 ], [ %11, %10 ]
  %17 = getelementptr inbounds nuw i8, ptr %6, i64 16
  %18 = load ptr, ptr %17, align 8, !tbaa !54
  %.not = icmp eq ptr %18, null
  %.phi.trans.insert = getelementptr inbounds nuw i8, ptr %.1, i64 24
  %.pre = load ptr, ptr %.phi.trans.insert, align 8, !tbaa !57
  br i1 %.not, label %28, label %19

19:                                               ; preds = %16
  call void @EC_GROUP_free(ptr noundef %.pre) #8
  %20 = load ptr, ptr %17, align 8, !tbaa !54
  %21 = call ptr @EC_GROUP_new_from_ecpkparameters(ptr noundef %20)
  store ptr %21, ptr %.phi.trans.insert, align 8, !tbaa !57
  %.not63 = icmp eq ptr %21, null
  br i1 %.not63, label %.sink.split, label %22

22:                                               ; preds = %19
  %23 = load ptr, ptr %17, align 8, !tbaa !54
  %24 = load i32, ptr %23, align 8, !tbaa !44
  %25 = icmp eq i32 %24, 1
  br i1 %25, label %26, label %.thread72

26:                                               ; preds = %22
  %27 = getelementptr inbounds nuw i8, ptr %21, i64 40
  store i32 1, ptr %27, align 8, !tbaa !49
  br label %.thread72

28:                                               ; preds = %16
  %29 = icmp eq ptr %.pre, null
  br i1 %29, label %.sink.split, label %.thread72

.thread72:                                        ; preds = %26, %22, %28
  %30 = getelementptr inbounds nuw i8, ptr %.1, i64 24
  %31 = load i32, ptr %6, align 8, !tbaa !64
  %32 = getelementptr inbounds nuw i8, ptr %.1, i64 16
  store i32 %31, ptr %32, align 8, !tbaa !65
  %33 = getelementptr inbounds nuw i8, ptr %6, i64 8
  %34 = load ptr, ptr %33, align 8, !tbaa !66
  %.not64 = icmp eq ptr %34, null
  br i1 %.not64, label %.sink.split, label %35

35:                                               ; preds = %.thread72
  %36 = call ptr @ASN1_STRING_get0_data(ptr noundef nonnull %34) #8
  %37 = call i32 @ASN1_STRING_length(ptr noundef nonnull %34) #8
  %38 = sext i32 %37 to i64
  %39 = call i32 @EC_KEY_oct2priv(ptr noundef nonnull %.1, ptr noundef %36, i64 noundef %38) #8
  %40 = icmp eq i32 %39, 0
  br i1 %40, label %80, label %41

41:                                               ; preds = %35
  %42 = load ptr, ptr %30, align 8, !tbaa !57
  %43 = call i32 @EC_GROUP_get_curve_name(ptr noundef %42) #8
  %44 = icmp eq i32 %43, 1172
  br i1 %44, label %45, label %46

45:                                               ; preds = %41
  call void @EC_KEY_set_flags(ptr noundef nonnull %.1, i32 noundef 4) #8
  br label %46

46:                                               ; preds = %45, %41
  %47 = getelementptr inbounds nuw i8, ptr %.1, i64 32
  %48 = load ptr, ptr %47, align 8, !tbaa !67
  call void @EC_POINT_clear_free(ptr noundef %48) #8
  %49 = load ptr, ptr %30, align 8, !tbaa !57
  %50 = call ptr @EC_POINT_new(ptr noundef %49) #8
  store ptr %50, ptr %47, align 8, !tbaa !67
  %51 = icmp eq ptr %50, null
  br i1 %51, label %.sink.split, label %52

52:                                               ; preds = %46
  %53 = getelementptr inbounds nuw i8, ptr %6, i64 24
  %54 = load ptr, ptr %53, align 8, !tbaa !68
  %.not65 = icmp eq ptr %54, null
  br i1 %.not65, label %61, label %55

55:                                               ; preds = %52
  %56 = call ptr @ASN1_STRING_get0_data(ptr noundef nonnull %54) #8
  %57 = load ptr, ptr %53, align 8, !tbaa !68
  %58 = call i32 @ASN1_STRING_length(ptr noundef %57) #8
  %59 = sext i32 %58 to i64
  %60 = call i32 @EC_KEY_oct2key(ptr noundef nonnull %.1, ptr noundef %56, i64 noundef %59, ptr noundef null) #8
  %.not66 = icmp eq i32 %60, 0
  br i1 %.not66, label %.sink.split, label %.thread

61:                                               ; preds = %52
  %62 = load ptr, ptr %30, align 8, !tbaa !57
  %63 = load ptr, ptr %62, align 8, !tbaa !69
  %64 = getelementptr inbounds nuw i8, ptr %63, i64 344
  %65 = load ptr, ptr %64, align 8, !tbaa !70
  %66 = icmp eq ptr %65, null
  br i1 %66, label %80, label %67

67:                                               ; preds = %61
  %68 = call i32 %65(ptr noundef nonnull %.1) #8
  %69 = icmp eq i32 %68, 0
  br i1 %69, label %80, label %70

70:                                               ; preds = %67
  %71 = getelementptr inbounds nuw i8, ptr %.1, i64 48
  %72 = load i32, ptr %71, align 8, !tbaa !72
  %73 = or i32 %72, 2
  store i32 %73, ptr %71, align 8, !tbaa !72
  br label %.thread

.thread:                                          ; preds = %55, %70
  br i1 %9, label %75, label %74

74:                                               ; preds = %.thread
  store ptr %.1, ptr %0, align 8, !tbaa !52
  br label %75

75:                                               ; preds = %74, %.thread
  call void @ASN1_item_free(ptr noundef nonnull %6, ptr noundef nonnull @EC_PRIVATEKEY_it.local_it) #8
  %76 = load ptr, ptr %4, align 8, !tbaa !3
  store ptr %76, ptr %1, align 8, !tbaa !3
  %77 = getelementptr inbounds nuw i8, ptr %.1, i64 96
  %78 = load i64, ptr %77, align 8, !tbaa !73
  %79 = add i64 %78, 1
  store i64 %79, ptr %77, align 8, !tbaa !73
  br label %85

.sink.split:                                      ; preds = %55, %46, %.thread72, %28, %19, %13
  %.sink74 = phi i32 [ 944, %13 ], [ 959, %19 ], [ 959, %28 ], [ 971, %.thread72 ], [ 981, %46 ], [ 992, %55 ]
  %.sink = phi i32 [ 524304, %13 ], [ 524304, %19 ], [ 524304, %28 ], [ 125, %.thread72 ], [ 524304, %46 ], [ 524304, %55 ]
  %.050.ph = phi ptr [ null, %13 ], [ %.1, %19 ], [ %.1, %28 ], [ %.1, %.thread72 ], [ %.1, %46 ], [ %.1, %55 ]
  call void @ERR_new() #8
  call void @ERR_set_debug(ptr noundef nonnull @.str.2, i32 noundef %.sink74, ptr noundef nonnull @__func__.d2i_ECPrivateKey) #8
  call void (i32, i32, ptr, ...) @ERR_set_error(i32 noundef 16, i32 noundef %.sink, ptr noundef null) #8
  br label %80

80:                                               ; preds = %.sink.split, %35, %61, %67
  %.050 = phi ptr [ %.1, %35 ], [ %.1, %61 ], [ %.1, %67 ], [ %.050.ph, %.sink.split ]
  br i1 %9, label %83, label %81

81:                                               ; preds = %80
  %82 = load ptr, ptr %0, align 8, !tbaa !52
  %.not68 = icmp eq ptr %82, %.050
  br i1 %.not68, label %84, label %83

83:                                               ; preds = %81, %80
  call void @EC_KEY_free(ptr noundef %.050) #8
  br label %84

84:                                               ; preds = %83, %81
  call void @ASN1_item_free(ptr noundef nonnull %6, ptr noundef nonnull @EC_PRIVATEKEY_it.local_it) #8
  br label %85

85:                                               ; preds = %3, %84, %75
  %.0 = phi ptr [ null, %84 ], [ %.1, %75 ], [ null, %3 ]
  call void @llvm.lifetime.end.p0(i64 8, ptr nonnull %4) #8
  ret ptr %.0
}